target datalayout = "e-m:e-p270:32:32-p271:32:32-p272:64:64-i64:64-i128:128-f80:128-n8:16:32:64-S128"
target triple = "x86_64-pc-linux-gnu"

%struct.JPGContext = type { %struct.BlockDSPContext, %struct.IDCTDSPContext, [64 x i8], [2 x %struct.VLC], [2 x %struct.VLC], [3 x i32], [12 x i8], [6 x [64 x i16]], ptr, [8 x i8] }
%struct.BlockDSPContext = type { ptr, ptr, [2 x ptr] }
%struct.IDCTDSPContext = type { ptr, ptr, ptr, ptr, ptr, ptr, [64 x i8], i32, i32 }
%struct.VLC = type { i32, ptr, i32, i32 }

; Function Attrs: cold nounwind optsize uwtable
define internal void @jpg_free_context(ptr noundef %0) #0 {
  %2 = alloca ptr, align 8
  %3 = alloca i32, align 4
  store ptr %0, ptr %2, align 8, !tbaa !84
  call void @llvm.lifetime.start.p0(i64 4, ptr %3) #12
  store i32 0, ptr %3, align 4, !tbaa !31
  br label %4

4:                                                ; preds = %18, %1
  %5 = load i32, ptr %3, align 4, !tbaa !31
  %6 = icmp slt i32 %5, 2
  br i1 %6, label %7, label %21

7:                                                ; preds = %4
  %8 = load ptr, ptr %2, align 8, !tbaa !84
  %9 = getelementptr inbounds nuw %struct.JPGContext, ptr %8, i32 0, i32 3
  %10 = load i32, ptr %3, align 4, !tbaa !31
  %11 = sext i32 %10 to i64
  %12 = getelementptr inbounds [2 x %struct.VLC], ptr %9, i64 0, i64 %11
  call void @ff_vlc_free(ptr noundef %12)
  %13 = load ptr, ptr %2, align 8, !tbaa !84
  %14 = getelementptr inbounds nuw %struct.JPGContext, ptr %13, i32 0, i32 4
  %15 = load i32, ptr %3, align 4, !tbaa !31
  %16 = sext i32 %15 to i64
  %17 = getelementptr inbounds [2 x %struct.VLC], ptr %14, i64 0, i64 %16
  call void @ff_vlc_free(ptr noundef %17)
  br label %18

18:                                               ; preds = %7
  %19 = load i32, ptr %3, align 4, !tbaa !31
  %20 = add nsw i32 %19, 1
  store i32 %20, ptr %3, align 4, !tbaa !31
  br label %4, !llvm.loop !196

21:                                               ; preds = %4
  %22 = load ptr, ptr %2, align 8, !tbaa !84
  %23 = getelementptr inbounds nuw %struct.JPGContext, ptr %22, i32 0, i32 8
  call void @av_freep(ptr noundef %23)
  call void @llvm.lifetime.end.p0(i64 4, ptr %3) #12
  ret void
}