; Function Attrs: cold nounwind optsize uwtable
define internal fastcc void @jpg_free_context(ptr noundef %0) unnamed_addr #0 {
.critedge:
  %1 = getelementptr inbounds nuw i8, ptr %0, i64 216
  %2 = getelementptr inbounds nuw i8, ptr %0, i64 264
  tail call void @ff_vlc_free(ptr noundef nonnull %1) #12
  tail call void @ff_vlc_free(ptr noundef nonnull %2) #12
  %3 = getelementptr inbounds nuw i8, ptr %0, i64 240
  tail call void @ff_vlc_free(ptr noundef nonnull %3) #12
  %4 = getelementptr inbounds nuw i8, ptr %0, i64 288
  tail call void @ff_vlc_free(ptr noundef nonnull %4) #12
  %5 = getelementptr inbounds nuw i8, ptr %0, i64 1104
  tail call void @av_freep(ptr noundef nonnull %5) #12
  ret void
}